ccopy_reg
_reconstructor
p1
(cxmppd.modules.db_fake
DictWatch
p2
c__builtin__
dict
p3
(dp4
S'127.0.0.1'
p5
g1
(g2
g3
(dp6
S'acc'
p7
g1
(g2
g3
(dp8
S'name'
p9
S'ACC'
p10
sS'groups'
p11
g1
(g2
g3
(dtRp12
sS'roster'
p13
g1
(g2
g3
(dtRp14
sS'anon_allow'
p15
S'yes'
p16
sS'password'
p17
S'Xkgofpom'
p18
sS'storage'
p19
g1
(g2
g3
(dtRp20
stRp21
sS'df'
p22
g1
(g2
g3
(dp23
g9
S'DF'
p24
sg11
g1
(g2
g3
(dtRp25
sg13
g1
(g2
g3
(dtRp26
sg15
g16
sg17
S'nPNqrrmK'
p27
sg19
g1
(g2
g3
(dtRp28
stRp29
sVagent
p30
g1
(g2
g3
(dp31
S'name'
p32
Vagent
p33
sS'groups'
p34
g1
(g2
g3
(dtRp35
sS'roster'
p36
g1
(g2
g3
(dp37
Vams.127.0.0.1
p38
(dp39
S'state'
p40
S''
sS'subscription'
p41
S'to'
p42
sstRp43
sS'anon_allow'
p44
S'yes'
p45
sS'password'
p46
Vsecret
p47
sS'storage'
p48
g1
(g2
g3
(dtRp49
stRp50
sVagent3
p51
g1
(g2
g3
(dp52
S'name'
p53
Vagent3
p54
sS'groups'
p55
g1
(g2
g3
(dtRp56
sS'roster'
p57
g1
(g2
g3
(dp58
Vams.127.0.0.1
p59
(dp60
S'state'
p61
S''
sS'subscription'
p62
S'to'
p63
sstRp64
sS'anon_allow'
p65
S'yes'
p66
sS'password'
p67
Vsecret
p68
sS'storage'
p69
g1
(g2
g3
(dtRp70
stRp71
sVagent2
p72
g1
(g2
g3
(dp73
g53
Vagent2
p74
sg55
g1
(g2
g3
(dtRp75
sg57
g1
(g2
g3
(dp76
Vams.127.0.0.1
p77
(dp78
g61
S''
sg62
g63
sstRp79
sg65
g66
sg67
Vsecret
p80
sg69
g1
(g2
g3
(dtRp81
stRp82
sVagent1
p83
g1
(g2
g3
(dp84
S'name'
p85
Vagent1
p86
sS'groups'
p87
g1
(g2
g3
(dtRp88
sS'roster'
p89
g1
(g2
g3
(dp90
Vams.127.0.0.1
p91
(dp92
S'state'
p93
S''
sS'subscription'
p94
S'to'
p95
sstRp96
sS'anon_allow'
p97
S'yes'
p98
sS'password'
p99
Vsecret
p100
sS'storage'
p101
g1
(g2
g3
(dtRp102
stRp103
sS'ams'
p104
g1
(g2
g3
(dp105
g9
S'AMS'
p106
sg11
g1
(g2
g3
(dtRp107
sg13
g1
(g2
g3
(dtRp108
sg15
g16
sg17
S'nMcsVhLX'
p109
sg19
g1
(g2
g3
(dtRp110
stRp111
sS'__ir__'
p112
(dp113
g15
g16
sg17
S'test'
p114
sg19
(dp115
S'karma'
p116
(dp117
S'down'
p118
I307200
sS'tot_up'
p119
I0
sS'tot_down'
p120
I0
sS'up'
p121
I307200307200307200
sS'last_time'
p122
F0
sssg11
(dp123
sg13
(dp124
sstRp125
stRp126
.