ccopy_reg
_reconstructor
p1
(cxmppd.modules.db_fake
DictWatch
p2
c__builtin__
dict
p3
(dp4
S'127.0.0.1'
p5
g1
(g2
g3
(dp6
S'acc'
p7
g1
(g2
g3
(dp8
S'name'
p9
S'ACC'
p10
sS'groups'
p11
g1
(g2
g3
(dtRp12
sS'roster'
p13
g1
(g2
g3
(dtRp14
sS'anon_allow'
p15
S'yes'
p16
sS'password'
p17
S'ISFxpCqD'
p18
sS'storage'
p19
g1
(g2
g3
(dtRp20
stRp21
sS'df'
p22
g1
(g2
g3
(dp23
g9
S'DF'
p24
sg11
g1
(g2
g3
(dtRp25
sg13
g1
(g2
g3
(dtRp26
sg15
g16
sg17
S'kZbuhFpp'
p27
sg19
g1
(g2
g3
(dtRp28
stRp29
sVagent
p30
g1
(g2
g3
(dp31
S'name'
p32
Vagent
p33
sS'groups'
p34
g1
(g2
g3
(dtRp35
sS'roster'
p36
g1
(g2
g3
(dp37
Vams.127.0.0.1
p38
(dp39
S'state'
p40
S''
sS'subscription'
p41
S'to'
p42
sstRp43
sS'anon_allow'
p44
S'yes'
p45
sS'password'
p46
Vsecret
p47
sS'storage'
p48
g1
(g2
g3
(dtRp49
stRp50
sVagent3
p51
g1
(g2
g3
(dp52
g9
Vagent3
p53
sg11
g1
(g2
g3
(dtRp54
sg13
g1
(g2
g3
(dp55
Vams.127.0.0.1
p56
(dp57
S'state'
p58
S''
sS'subscription'
p59
S'to'
p60
sstRp61
sg15
g16
sg17
Vsecret
p62
sg19
g1
(g2
g3
(dtRp63
stRp64
sVagent2
p65
g1
(g2
g3
(dp66
g9
Vagent2
p67
sg11
g1
(g2
g3
(dtRp68
sg13
g1
(g2
g3
(dp69
Vams.127.0.0.1
p70
(dp71
g58
S''
sg59
g60
sstRp72
sg15
g16
sg17
Vsecret
p73
sg19
g1
(g2
g3
(dtRp74
stRp75
sVagent1
p76
g1
(g2
g3
(dp77
S'name'
p78
Vagent1
p79
sS'groups'
p80
g1
(g2
g3
(dtRp81
sS'roster'
p82
g1
(g2
g3
(dp83
Vams.127.0.0.1
p84
(dp85
S'state'
p86
S''
sS'subscription'
p87
S'to'
p88
sstRp89
sS'anon_allow'
p90
S'yes'
p91
sS'password'
p92
Vsecret
p93
sS'storage'
p94
g1
(g2
g3
(dtRp95
stRp96
sS'ams'
p97
g1
(g2
g3
(dp98
g9
S'AMS'
p99
sg11
g1
(g2
g3
(dtRp100
sg13
g1
(g2
g3
(dp101
S'agent2@127.0.0.1'
p102
(dp103
g58
S''
sg59
S'from'
p104
ssS'agent3@127.0.0.1'
p105
(dp106
g58
S''
sg59
g104
ssS'agent1@127.0.0.1'
p107
(dp108
g58
S''
sg59
g104
sstRp109
sg15
g16
sg17
S'KmVSlFLC'
p110
sg19
g1
(g2
g3
(dtRp111
stRp112
sS'__ir__'
p113
(dp114
g15
g16
sg17
S'test'
p115
sg19
(dp116
S'karma'
p117
(dp118
S'down'
p119
I307200
sS'tot_up'
p120
I0
sS'tot_down'
p121
I0
sS'up'
p122
I307200307200307200
sS'last_time'
p123
F0
sssg11
(dp124
sg13
(dp125
sstRp126
stRp127
.