ccopy_reg
_reconstructor
p1
(cxmppd.modules.db_fake
DictWatch
p2
c__builtin__
dict
p3
(dp4
S'127.0.0.1'
p5
g1
(g2
g3
(dp6
S'acc'
p7
g1
(g2
g3
(dp8
S'name'
p9
S'ACC'
p10
sS'groups'
p11
g1
(g2
g3
(dtRp12
sS'roster'
p13
g1
(g2
g3
(dtRp14
sS'anon_allow'
p15
S'yes'
p16
sS'password'
p17
S'ggIkcaXM'
p18
sS'storage'
p19
g1
(g2
g3
(dtRp20
stRp21
sS'df'
p22
g1
(g2
g3
(dp23
g9
S'DF'
p24
sg11
g1
(g2
g3
(dtRp25
sg13
g1
(g2
g3
(dtRp26
sg15
g16
sg17
S'iJZeTqNi'
p27
sg19
g1
(g2
g3
(dtRp28
stRp29
sVagent
p30
g1
(g2
g3
(dp31
g9
Vagent
p32
sg11
g1
(g2
g3
(dtRp33
sg13
g1
(g2
g3
(dp34
Vams.127.0.0.1
p35
(dp36
S'state'
p37
S''
sS'subscription'
p38
S'to'
p39
sstRp40
sg15
g16
sg17
Vsecret
p41
sg19
g1
(g2
g3
(dtRp42
stRp43
sVagent2
p44
g1
(g2
g3
(dp45
S'name'
p46
Vagent2
p47
sS'groups'
p48
g1
(g2
g3
(dtRp49
sS'roster'
p50
g1
(g2
g3
(dp51
Vams.127.0.0.1
p52
(dp53
S'state'
p54
S''
sS'subscription'
p55
S'to'
p56
sstRp57
sS'anon_allow'
p58
S'yes'
p59
sS'password'
p60
Vsecret
p61
sS'storage'
p62
g1
(g2
g3
(dtRp63
stRp64
sVagent1
p65
g1
(g2
g3
(dp66
g46
Vagent1
p67
sg48
g1
(g2
g3
(dtRp68
sg50
g1
(g2
g3
(dp69
Vams.127.0.0.1
p70
(dp71
g54
S''
sg55
g56
sstRp72
sg58
g59
sg60
Vsecret
p73
sg62
g1
(g2
g3
(dtRp74
stRp75
sS'ams'
p76
g1
(g2
g3
(dp77
g9
S'AMS'
p78
sg11
g1
(g2
g3
(dtRp79
sg13
g1
(g2
g3
(dp80
S'agent@127.0.0.1'
p81
(dp82
g37
S''
sg38
S'from'
p83
ssS'crawler@127.0.0.1'
p84
(dp85
g37
S''
sg38
g83
sstRp86
sg15
g16
sg17
S'mkaQGkTK'
p87
sg19
g1
(g2
g3
(dtRp88
stRp89
sVcrawler
p90
g1
(g2
g3
(dp91
S'name'
p92
Vcrawler
p93
sS'groups'
p94
g1
(g2
g3
(dtRp95
sS'roster'
p96
g1
(g2
g3
(dp97
Vams.127.0.0.1
p98
(dp99
S'state'
p100
S''
sS'subscription'
p101
S'to'
p102
sstRp103
sS'anon_allow'
p104
S'yes'
p105
sS'password'
p106
Vsecret
p107
sS'storage'
p108
g1
(g2
g3
(dtRp109
stRp110
sS'__ir__'
p111
(dp112
g15
g16
sg17
S'test'
p113
sg19
(dp114
S'karma'
p115
(dp116
S'down'
p117
I307200
sS'tot_up'
p118
I0
sS'tot_down'
p119
I0
sS'up'
p120
I307200307200307200
sS'last_time'
p121
F0
sssg11
(dp122
sg13
(dp123
sstRp124
stRp125
.