ccopy_reg
_reconstructor
p1
(cxmppd.modules.db_fake
DictWatch
p2
c__builtin__
dict
p3
(dp4
S'127.0.0.1'
p5
g1
(g2
g3
(dp6
S'acc'
p7
g1
(g2
g3
(dp8
S'name'
p9
S'ACC'
p10
sS'groups'
p11
g1
(g2
g3
(dtRp12
sS'roster'
p13
g1
(g2
g3
(dtRp14
sS'anon_allow'
p15
S'yes'
p16
sS'password'
p17
S'ggIkcaXM'
p18
sS'storage'
p19
g1
(g2
g3
(dtRp20
stRp21
sS'df'
p22
g1
(g2
g3
(dp23
g9
S'DF'
p24
sg11
g1
(g2
g3
(dtRp25
sg13
g1
(g2
g3
(dtRp26
sg15
g16
sg17
S'iJZeTqNi'
p27
sg19
g1
(g2
g3
(dtRp28
stRp29
sVagent
p30
g1
(g2
g3
(dp31
S'name'
p32
Vagent
p33
sS'groups'
p34
g1
(g2
g3
(dtRp35
sS'roster'
p36
g1
(g2
g3
(dp37
Vams.127.0.0.1
p38
(dp39
S'state'
p40
S''
sS'subscription'
p41
S'to'
p42
sstRp43
sS'anon_allow'
p44
S'yes'
p45
sS'password'
p46
Vsecret
p47
sS'storage'
p48
g1
(g2
g3
(dtRp49
stRp50
sVagent2
p51
g1
(g2
g3
(dp52
S'name'
p53
Vagent2
p54
sS'groups'
p55
g1
(g2
g3
(dtRp56
sS'roster'
p57
g1
(g2
g3
(dp58
Vams.127.0.0.1
p59
(dp60
S'state'
p61
S''
sS'subscription'
p62
S'to'
p63
sstRp64
sS'anon_allow'
p65
S'yes'
p66
sS'password'
p67
Vsecret
p68
sS'storage'
p69
g1
(g2
g3
(dtRp70
stRp71
sVagent1
p72
g1
(g2
g3
(dp73
g53
Vagent1
p74
sg55
g1
(g2
g3
(dtRp75
sg57
g1
(g2
g3
(dp76
Vams.127.0.0.1
p77
(dp78
g61
S''
sg62
g63
sstRp79
sg65
g66
sg67
Vsecret
p80
sg69
g1
(g2
g3
(dtRp81
stRp82
sS'ams'
p83
g1
(g2
g3
(dp84
g9
S'AMS'
p85
sg11
g1
(g2
g3
(dtRp86
sg13
g1
(g2
g3
(dp87
S'crawler@127.0.0.1'
p88
(dp89
S'state'
p90
S''
sS'subscription'
p91
S'from'
p92
sstRp93
sg15
g16
sg17
S'mkaQGkTK'
p94
sg19
g1
(g2
g3
(dtRp95
stRp96
sS'__ir__'
p97
(dp98
g15
g16
sg17
S'test'
p99
sg19
(dp100
S'karma'
p101
(dp102
S'down'
p103
I307200
sS'tot_up'
p104
I0
sS'tot_down'
p105
I0
sS'up'
p106
I307200307200307200
sS'last_time'
p107
F0
sssg11
(dp108
sg13
(dp109
ssVcrawler
p110
g1
(g2
g3
(dp111
S'name'
p112
Vcrawler
p113
sS'groups'
p114
g1
(g2
g3
(dtRp115
sS'roster'
p116
g1
(g2
g3
(dp117
Vams.127.0.0.1
p118
(dp119
S'state'
p120
S''
sS'subscription'
p121
S'to'
p122
sstRp123
sS'anon_allow'
p124
S'yes'
p125
sS'password'
p126
Vsecret
p127
sS'storage'
p128
g1
(g2
g3
(dtRp129
stRp130
stRp131
stRp132
.