ccopy_reg
_reconstructor
p1
(cxmppd.modules.db_fake
DictWatch
p2
c__builtin__
dict
p3
(dp4
S'127.0.0.1'
p5
g1
(g2
g3
(dp6
S'acc'
p7
g1
(g2
g3
(dp8
S'name'
p9
S'ACC'
p10
sS'groups'
p11
g1
(g2
g3
(dtRp12
sS'roster'
p13
g1
(g2
g3
(dtRp14
sS'anon_allow'
p15
S'yes'
p16
sS'password'
p17
S'ggIkcaXM'
p18
sS'storage'
p19
g1
(g2
g3
(dtRp20
stRp21
sVagent2
p22
g1
(g2
g3
(dp23
S'name'
p24
Vagent2
p25
sS'groups'
p26
g1
(g2
g3
(dtRp27
sS'roster'
p28
g1
(g2
g3
(dp29
Vams.127.0.0.1
p30
(dp31
S'state'
p32
S''
sS'subscription'
p33
S'to'
p34
sstRp35
sS'anon_allow'
p36
S'yes'
p37
sS'password'
p38
Vsecret
p39
sS'storage'
p40
g1
(g2
g3
(dtRp41
stRp42
sVagent1
p43
g1
(g2
g3
(dp44
g24
Vagent1
p45
sg26
g1
(g2
g3
(dtRp46
sg28
g1
(g2
g3
(dp47
Vams.127.0.0.1
p48
(dp49
g32
S''
sg33
g34
sstRp50
sg36
g37
sg38
Vsecret
p51
sg40
g1
(g2
g3
(dtRp52
stRp53
sS'df'
p54
g1
(g2
g3
(dp55
g9
S'DF'
p56
sg11
g1
(g2
g3
(dtRp57
sg13
g1
(g2
g3
(dtRp58
sg15
g16
sg17
S'iJZeTqNi'
p59
sg19
g1
(g2
g3
(dtRp60
stRp61
sS'ams'
p62
g1
(g2
g3
(dp63
g9
S'AMS'
p64
sg11
g1
(g2
g3
(dtRp65
sg13
g1
(g2
g3
(dp66
S'agent2@127.0.0.1'
p67
(dp68
S'state'
p69
S''
sS'subscription'
p70
S'from'
p71
ssS'agent1@127.0.0.1'
p72
(dp73
g69
S''
sg70
g71
sstRp74
sg15
g16
sg17
S'mkaQGkTK'
p75
sg19
g1
(g2
g3
(dtRp76
stRp77
sS'__ir__'
p78
(dp79
g15
g16
sg17
S'test'
p80
sg19
(dp81
S'karma'
p82
(dp83
S'down'
p84
I307200
sS'tot_up'
p85
I0
sS'tot_down'
p86
I0
sS'up'
p87
I307200307200307200
sS'last_time'
p88
F0
sssg11
(dp89
sg13
(dp90
sstRp91
stRp92
.